; Function Attrs: mustprogress uwtable
define void @_ZN19OpenColorIO_v2_5dev12GPUProcessorC2Ev(ptr noundef nonnull writeonly align 8 captures(none) dereferenceable(8) %0) unnamed_addr #3 align 2 personality ptr @__gxx_personality_v0 {
  %2 = tail call noalias noundef nonnull dereferenceable(224) ptr @_Znwm(i64 noundef 224) #25
  invoke void @_ZN19OpenColorIO_v2_5dev10OpRcPtrVecC1Ev(ptr noundef nonnull align 8 dereferenceable(224) %2)
          to label %3 unwind label %10

3:                                                ; preds = %1
  %4 = getelementptr inbounds nuw i8, ptr %2, i64 144
  store i8 0, ptr %4, align 8, !tbaa !3
  %5 = getelementptr inbounds nuw i8, ptr %2, i64 145
  store i8 1, ptr %5, align 1, !tbaa !33
  %6 = getelementptr inbounds nuw i8, ptr %2, i64 152
  %7 = getelementptr inbounds nuw i8, ptr %2, i64 168
  store ptr %7, ptr %6, align 8, !tbaa !43
  %8 = getelementptr inbounds nuw i8, ptr %2, i64 160
  store i64 0, ptr %8, align 8, !tbaa !35
  store i8 0, ptr %7, align 1, !tbaa !36
  %9 = getelementptr inbounds nuw i8, ptr %2, i64 184
  tail call void @llvm.memset.p0.i64(ptr noundef nonnull align 8 dereferenceable(40) %9, i8 0, i64 40, i1 false)
  store ptr %2, ptr %0, align 8, !tbaa !65
  ret void

10:                                               ; preds = %1
  %11 = landingpad { ptr, i32 }
          cleanup
  tail call void @_ZdlPvm(ptr noundef nonnull %2, i64 noundef 224) #24
  resume { ptr, i32 } %11
}